; ModuleID = 'bench/linux/original/timeconv.ll'
source_filename = "bench/linux/original/timeconv.ll"
target datalayout = "e-m:e-p270:32:32-p271:32:32-p272:64:64-i64:64-i128:128-f80:128-n8:16:32:64-S128"
target triple = "x86_64-unknown-linux-gnu"

module asm ".section \22.export_symbol\22,\22a\22 ; __export_symbol_time64_to_tm: ; .asciz \22\22 ; .asciz \22\22 ; .balign 8 ; .quad time64_to_tm ; .previous"

@__UNIQUE_ID___addressable_time64_to_tm303 = internal global ptr @time64_to_tm, section ".discard.addressable", align 8
@llvm.compiler.used = appending global [1 x ptr] [ptr @__UNIQUE_ID___addressable_time64_to_tm303], section "llvm.metadata"

; Function Attrs: fn_ret_thunk_extern mustprogress nofree norecurse nosync nounwind null_pointer_is_valid willreturn memory(argmem: write)
define dso_local void @time64_to_tm(i64 noundef %0, i32 noundef %1, ptr nocapture noundef writeonly %2) #0 align 16 {
  %4 = srem i64 %0, 86400
  %5 = sdiv i64 %0, 86400
  %6 = sext i32 %1 to i64
  %7 = add nsw i64 %4, %6
  %8 = icmp slt i64 %7, 0
  br i1 %8, label %9, label %20

9:                                                ; preds = %3
  %10 = icmp ult i64 %7, -86400
  %.neg9 = sext i1 %10 to i64
  %11 = zext i1 %10 to i64
  %.neg8 = tail call i64 @llvm.usub.sat.i64(i64 -86400, i64 %7)
  %12 = add nsw i64 %.neg8, %.neg9
  %13 = udiv i64 %12, 86400
  %14 = add nuw nsw i64 %13, %11
  %15 = mul i64 %14, 86400
  %16 = add nsw i64 %7, 86400
  %17 = add i64 %16, %15
  %18 = xor i64 %14, -1
  %19 = add nsw i64 %5, %18
  br label %20

20:                                               ; preds = %9, %3
  %21 = phi i64 [ %5, %3 ], [ %19, %9 ]
  %22 = phi i64 [ %7, %3 ], [ %17, %9 ]
  %23 = icmp sgt i64 %22, 86399
  br i1 %23, label %24, label %33

24:                                               ; preds = %20
  %25 = tail call i64 @llvm.usub.sat.i64(i64 %22, i64 172799)
  %26 = add nuw nsw i64 %25, 86399
  %27 = udiv i64 %26, 86400
  %28 = mul nsw i64 %27, -86400
  %29 = add nsw i64 %22, -86400
  %30 = add nsw i64 %29, %28
  %31 = add nsw i64 %21, 1
  %32 = add nsw i64 %31, %27
  br label %33

33:                                               ; preds = %24, %20
  %34 = phi i64 [ %21, %20 ], [ %32, %24 ]
  %35 = phi i64 [ %22, %20 ], [ %30, %24 ]
  %36 = udiv i64 %35, 3600
  %37 = trunc i64 %36 to i32
  %38 = getelementptr inbounds i8, ptr %2, i64 8
  store i32 %37, ptr %38, align 8
  %39 = urem i64 %35, 3600
  %.lhs.trunc = trunc i64 %39 to i16
  %40 = udiv i16 %.lhs.trunc, 60
  %41 = zext nneg i16 %40 to i32
  %42 = getelementptr inbounds i8, ptr %2, i64 4
  store i32 %41, ptr %42, align 4
  %43 = urem i16 %.lhs.trunc, 60
  %44 = zext nneg i16 %43 to i32
  store i32 %44, ptr %2, align 8
  %45 = add nsw i64 %34, 4
  %46 = srem i64 %45, 7
  %47 = trunc i64 %46 to i32
  %48 = getelementptr inbounds i8, ptr %2, i64 32
  %49 = icmp slt i32 %47, 0
  %50 = add nsw i32 %47, 7
  %51 = select i1 %49, i32 %50, i32 %47
  store i32 %51, ptr %48, align 8
  %52 = shl nsw i64 %34, 2
  %53 = add i64 %52, -9223372036854291941
  %54 = urem i64 %53, 146097
  %55 = udiv i64 %53, 146097
  %56 = and i64 %54, 262140
  %57 = mul nuw nsw i64 %56, 2939745
  %58 = add nuw nsw i64 %57, 8819235
  %59 = lshr i64 %58, 32
  %60 = trunc i64 %59 to i32
  %61 = icmp eq i32 %60, 0
  %62 = and i32 %60, 3
  %63 = icmp eq i32 %62, 0
  %64 = and i64 %55, 3
  %65 = icmp eq i64 %64, 0
  %66 = select i1 %61, i1 %65, i1 %63
  %67 = mul nuw nsw i64 %55, 100
  %68 = trunc i64 %58 to i32
  %69 = udiv i32 %68, 11758980
  %70 = mul nuw nsw i32 %69, 2141
  %71 = add nuw nsw i32 %70, 132377
  %72 = lshr i32 %71, 16
  %.lhs.trunc5 = trunc i32 %71 to i16
  %73 = udiv i16 %.lhs.trunc5, 2141
  %74 = icmp ugt i32 %68, -696719417
  %75 = zext i1 %74 to i64
  %76 = add nsw i32 %72, -12
  %77 = select i1 %74, i32 %76, i32 %72
  %narrow = add nuw nsw i16 %73, 1
  %78 = zext nneg i16 %narrow to i32
  %79 = select i1 %66, i32 60, i32 59
  %80 = select i1 %74, i32 -306, i32 %79
  %81 = add nsw i32 %80, %69
  %82 = add nsw i64 %67, -6313183731941900
  %83 = add nsw i64 %82, %59
  %84 = add nsw i64 %83, %75
  %85 = getelementptr inbounds i8, ptr %2, i64 24
  store i64 %84, ptr %85, align 8
  %86 = getelementptr inbounds i8, ptr %2, i64 16
  store i32 %77, ptr %86, align 8
  %87 = getelementptr inbounds i8, ptr %2, i64 12
  store i32 %78, ptr %87, align 4
  %88 = getelementptr inbounds i8, ptr %2, i64 36
  store i32 %81, ptr %88, align 4
  ret void
}

; Function Attrs: nocallback nofree nosync nounwind speculatable willreturn memory(none)
declare i64 @llvm.usub.sat.i64(i64, i64) #1


!llvm.module.flags = !{!0, !1, !2, !3, !4}

!0 = !{i32 1, !"wchar_size", i32 2}
!1 = !{i32 8, !"cf-protection-branch", i32 1}
!2 = !{i32 4, !"function_return_thunk_extern", i32 1}
!3 = !{i32 4, !"indirect_branch_cs_prefix", i32 1}
!4 = !{i32 4, !"SkipRaxSetup", i32 1}
